; Function Attrs: nounwind uwtable
define internal ptr @unicode_append(ptr readnone captures(none) %0, ptr noundef %1) #0 {
  %3 = alloca ptr, align 8
  %4 = alloca ptr, align 8
  %5 = alloca ptr, align 8
  call void @llvm.lifetime.start.p0(i64 8, ptr nonnull %3) #4
  call void @llvm.lifetime.start.p0(i64 8, ptr nonnull %4) #4
  call void @llvm.lifetime.start.p0(i64 8, ptr nonnull %5) #4
  %6 = call i32 (ptr, ptr, ...) @PyArg_ParseTuple(ptr noundef %1, ptr noundef nonnull @.str.363, ptr noundef nonnull %3, ptr noundef nonnull %4) #4
  %.not = icmp eq i32 %6, 0
  br i1 %.not, label %26, label %7

7:                                                ; preds = %2
  %8 = load ptr, ptr %3, align 8, !tbaa !8
  %9 = call ptr @Py_GetConstantBorrowed(i32 noundef 0) #4
  %10 = icmp eq ptr %8, %9
  br i1 %10, label %11, label %12

11:                                               ; preds = %7
  store ptr null, ptr %3, align 8, !tbaa !8
  br label %12

12:                                               ; preds = %7, %11
  %13 = load ptr, ptr %4, align 8, !tbaa !8
  %14 = call ptr @Py_GetConstantBorrowed(i32 noundef 0) #4
  %15 = icmp eq ptr %13, %14
  br i1 %15, label %16, label %17

16:                                               ; preds = %12
  store ptr null, ptr %4, align 8, !tbaa !8
  br label %17

17:                                               ; preds = %16, %12
  %18 = load ptr, ptr %3, align 8, !tbaa !8
  %19 = call fastcc ptr @unicode_copy(ptr noundef %18)
  store ptr %19, ptr %5, align 8, !tbaa !8
  %20 = icmp eq ptr %19, null
  %21 = load ptr, ptr %3, align 8
  %22 = icmp ne ptr %21, null
  %or.cond = select i1 %20, i1 %22, i1 false
  br i1 %or.cond, label %26, label %23

23:                                               ; preds = %17
  %24 = load ptr, ptr %4, align 8, !tbaa !8
  call void @PyUnicode_Append(ptr noundef nonnull %5, ptr noundef %24) #4
  %25 = load ptr, ptr %5, align 8, !tbaa !8
  br label %26

26:                                               ; preds = %17, %2, %23
  %.0 = phi ptr [ %25, %23 ], [ null, %2 ], [ null, %17 ]
  call void @llvm.lifetime.end.p0(i64 8, ptr nonnull %5) #4
  call void @llvm.lifetime.end.p0(i64 8, ptr nonnull %4) #4
  call void @llvm.lifetime.end.p0(i64 8, ptr nonnull %3) #4
  ret ptr %.0
}